; Function Attrs: mustprogress nounwind uwtable
define noundef zeroext i1 @_ZN12envcfg_csr_t14unlogged_writeEm(ptr noundef nonnull align 8 dereferenceable(56) %0, i64 noundef %1) unnamed_addr #7 align 2 personality ptr @__gxx_personality_v0 {
  %3 = and i64 %1, 48
  %.not = icmp eq i64 %3, 32
  %4 = and i64 %1, -49
  %5 = select i1 %.not, i64 %4, i64 %1
  %6 = lshr i64 %5, 32
  %7 = and i64 %6, 3
  %.not9 = icmp eq i64 %7, 1
  %8 = shl nuw nsw i64 %7, 32
  %9 = select i1 %.not9, i64 0, i64 %8
  %10 = lshr exact i64 %9, 32
  %11 = load ptr, ptr %0, align 8, !tbaa !3
  %12 = getelementptr inbounds nuw i8, ptr %11, i64 8
  %13 = load ptr, ptr %12, align 8
  %14 = tail call noundef i64 %13(ptr noundef nonnull align 8 dereferenceable(48) %0) #30
  %15 = lshr i64 %14, 32
  %16 = and i64 %15, 3
  %.not10 = icmp eq i64 %10, %16
  br i1 %.not10, label %22, label %17

17:                                               ; preds = %2
  %18 = getelementptr inbounds nuw i8, ptr %0, i64 8
  %19 = load ptr, ptr %18, align 8, !tbaa !6
  %20 = getelementptr inbounds nuw i8, ptr %19, i64 176
  %21 = load ptr, ptr %20, align 8, !tbaa !171
  invoke void @_ZN5mmu_t9flush_tlbEv(ptr noundef nonnull align 8 dereferenceable(43168) %21)
          to label %22 unwind label %36

22:                                               ; preds = %17, %2
  %23 = and i64 %5, -12884901889
  %24 = or disjoint i64 %9, %23
  %25 = load ptr, ptr %0, align 8, !tbaa !3
  %26 = getelementptr inbounds nuw i8, ptr %25, i64 8
  %27 = load ptr, ptr %26, align 8
  %28 = tail call noundef i64 %27(ptr noundef nonnull align 8 dereferenceable(56) %0) #30
  %29 = getelementptr inbounds nuw i8, ptr %0, i64 48
  %30 = load i64, ptr %29, align 8, !tbaa !228
  %31 = xor i64 %30, -1
  %32 = and i64 %28, %31
  %33 = and i64 %30, %24
  %34 = or i64 %32, %33
  %35 = getelementptr inbounds nuw i8, ptr %0, i64 40
  store i64 %34, ptr %35, align 8, !tbaa !159
  ret i1 true

36:                                               ; preds = %17
  %37 = landingpad { ptr, i32 }
          catch ptr null
  %38 = extractvalue { ptr, i32 } %37, 0
  tail call void @__clang_call_terminate(ptr %38) #32
  unreachable
}